target datalayout = "e-m:e-p270:32:32-p271:32:32-p272:64:64-i64:64-i128:128-f80:128-n8:16:32:64-S128"
target triple = "x86_64-pc-linux-gnu"

%struct.stat = type { i64, i64, i64, i32, i32, i32, i32, i64, i64, i64, i64, %struct.timespec, %struct.timespec, %struct.timespec, [3 x i64] }
%struct.timespec = type { i64, i64 }

@.str.1 = private unnamed_addr constant [5 x i8] c"fd.c\00", align 1
@.str.22 = private unnamed_addr constant [41 x i8] c"could not unlink temporary file \22%s\22: %m\00", align 1
@__func__.PathNameDeleteTemporaryFile = private unnamed_addr constant [28 x i8] c"PathNameDeleteTemporaryFile\00", align 1
@.str.23 = private unnamed_addr constant [29 x i8] c"could not stat file \22%s\22: %m\00", align 1
@log_temp_files = external global i32, align 4
@.str.55 = private unnamed_addr constant [36 x i8] c"temporary file: path \22%s\22, size %lu\00", align 1
@__func__.ReportTemporaryFileUsage = private unnamed_addr constant [25 x i8] c"ReportTemporaryFileUsage\00", align 1

; Function Attrs: nounwind uwtable
define internal void @ReportTemporaryFileUsage(ptr noundef %0, i64 noundef %1) #0 {
  %3 = alloca ptr, align 8
  %4 = alloca i64, align 8
  store ptr %0, ptr %3, align 8
  store i64 %1, ptr %4, align 8
  %5 = load i64, ptr %4, align 8
  call void @pgstat_report_tempfile(i64 noundef %5)
  %6 = load i32, ptr @log_temp_files, align 4
  %7 = icmp sge i32 %6, 0
  br i1 %7, label %8, label %27

8:                                                ; preds = %2
  %9 = load i64, ptr %4, align 8
  %10 = sdiv i64 %9, 1024
  %11 = load i32, ptr @log_temp_files, align 4
  %12 = sext i32 %11 to i64
  %13 = icmp sge i64 %10, %12
  br i1 %13, label %14, label %26

14:                                               ; preds = %8
  br label %15

15:                                               ; preds = %14
  br i1 false, label %16, label %18

16:                                               ; preds = %15
  %17 = call zeroext i1 @errstart_cold(i32 noundef 15, ptr noundef null) #16
  br i1 %17, label %20, label %24

18:                                               ; preds = %15
  %19 = call zeroext i1 @errstart(i32 noundef 15, ptr noundef null)
  br i1 %19, label %20, label %24

20:                                               ; preds = %18, %16
  %21 = load ptr, ptr %3, align 8
  %22 = load i64, ptr %4, align 8
  %23 = call i32 (ptr, ...) @errmsg(ptr noundef @.str.55, ptr noundef %21, i64 noundef %22)
  call void @errfinish(ptr noundef @.str.1, i32 noundef 1536, ptr noundef @__func__.ReportTemporaryFileUsage)
  br label %24

24:                                               ; preds = %20, %18, %16
  br label %25

25:                                               ; preds = %24
  br label %26

26:                                               ; preds = %25, %8
  br label %27

27:                                               ; preds = %26, %2
  ret void
}

; Function Attrs: nounwind uwtable
define dso_local zeroext i1 @PathNameDeleteTemporaryFile(ptr noundef %0, i1 noundef zeroext %1) #0 {
  %3 = alloca i1, align 1
  %4 = alloca ptr, align 8
  %5 = alloca i8, align 1
  %6 = alloca %struct.stat, align 8
  %7 = alloca i32, align 4
  %8 = alloca i32, align 4
  store ptr %0, ptr %4, align 8
  %9 = zext i1 %1 to i8
  store i8 %9, ptr %5, align 1
  call void @llvm.lifetime.start.p0(i64 144, ptr %6) #14
  call void @llvm.lifetime.start.p0(i64 4, ptr %7) #14
  %10 = load ptr, ptr %4, align 8
  %11 = call i32 @stat(ptr noundef %10, ptr noundef %6) #14
  %12 = icmp ne i32 %11, 0
  br i1 %12, label %13, label %16

13:                                               ; preds = %2
  %14 = call ptr @__errno_location() #15
  %15 = load i32, ptr %14, align 4
  store i32 %15, ptr %7, align 4
  br label %17

16:                                               ; preds = %2
  store i32 0, ptr %7, align 4
  br label %17

17:                                               ; preds = %16, %13
  %18 = load i32, ptr %7, align 4
  %19 = icmp eq i32 %18, 2
  br i1 %19, label %20, label %21

20:                                               ; preds = %17
  store i1 false, ptr %3, align 1
  store i32 1, ptr %8, align 4
  br label %92

21:                                               ; preds = %17
  %22 = load ptr, ptr %4, align 8
  %23 = call i32 @unlink(ptr noundef %22) #14
  %24 = icmp slt i32 %23, 0
  br i1 %24, label %25, label %69

25:                                               ; preds = %21
  %26 = call ptr @__errno_location() #15
  %27 = load i32, ptr %26, align 4
  %28 = icmp ne i32 %27, 2
  br i1 %28, label %29, label %68

29:                                               ; preds = %25
  br label %30

30:                                               ; preds = %29
  %31 = load i8, ptr %5, align 1, !range !4, !noundef !5
  %32 = trunc i8 %31 to i1
  %33 = select i1 %32, i32 21, i32 15
  %34 = call i1 @llvm.is.constant.i32(i32 %33)
  br i1 %34, label %35, label %45

35:                                               ; preds = %30
  %36 = load i8, ptr %5, align 1, !range !4, !noundef !5
  %37 = trunc i8 %36 to i1
  %38 = select i1 %37, i32 21, i32 15
  %39 = icmp sge i32 %38, 21
  br i1 %39, label %40, label %45

40:                                               ; preds = %35
  %41 = load i8, ptr %5, align 1, !range !4, !noundef !5
  %42 = trunc i8 %41 to i1
  %43 = select i1 %42, i32 21, i32 15
  %44 = call zeroext i1 @errstart_cold(i32 noundef %43, ptr noundef null) #16
  br i1 %44, label %50, label %54

45:                                               ; preds = %35, %30
  %46 = load i8, ptr %5, align 1, !range !4, !noundef !5
  %47 = trunc i8 %46 to i1
  %48 = select i1 %47, i32 21, i32 15
  %49 = call zeroext i1 @errstart(i32 noundef %48, ptr noundef null)
  br i1 %49, label %50, label %54

50:                                               ; preds = %45, %40
  %51 = call i32 @errcode_for_file_access()
  %52 = load ptr, ptr %4, align 8
  %53 = call i32 (ptr, ...) @errmsg(ptr noundef @.str.22, ptr noundef %52)
  call void @errfinish(ptr noundef @.str.1, i32 noundef 1956, ptr noundef @__func__.PathNameDeleteTemporaryFile)
  br label %54

54:                                               ; preds = %50, %45, %40
  %55 = load i8, ptr %5, align 1, !range !4, !noundef !5
  %56 = trunc i8 %55 to i1
  %57 = select i1 %56, i32 21, i32 15
  %58 = call i1 @llvm.is.constant.i32(i32 %57)
  br i1 %58, label %59, label %65

59:                                               ; preds = %54
  %60 = load i8, ptr %5, align 1, !range !4, !noundef !5
  %61 = trunc i8 %60 to i1
  %62 = select i1 %61, i32 21, i32 15
  %63 = icmp sge i32 %62, 21
  br i1 %63, label %64, label %65

64:                                               ; preds = %59
  unreachable

65:                                               ; preds = %59, %54
  br label %66

66:                                               ; preds = %65
  br label %67

67:                                               ; preds = %66
  br label %68

68:                                               ; preds = %67, %25
  store i1 false, ptr %3, align 1
  store i32 1, ptr %8, align 4
  br label %92

69:                                               ; preds = %21
  %70 = load i32, ptr %7, align 4
  %71 = icmp eq i32 %70, 0
  br i1 %71, label %72, label %76

72:                                               ; preds = %69
  %73 = load ptr, ptr %4, align 8
  %74 = getelementptr inbounds nuw %struct.stat, ptr %6, i32 0, i32 8
  %75 = load i64, ptr %74, align 8
  call void @ReportTemporaryFileUsage(ptr noundef %73, i64 noundef %75)
  br label %91

76:                                               ; preds = %69
  %77 = load i32, ptr %7, align 4
  %78 = call ptr @__errno_location() #15
  store i32 %77, ptr %78, align 4
  br label %79

79:                                               ; preds = %76
  br i1 false, label %80, label %82

80:                                               ; preds = %79
  %81 = call zeroext i1 @errstart_cold(i32 noundef 15, ptr noundef null) #16
  br i1 %81, label %84, label %88

82:                                               ; preds = %79
  %83 = call zeroext i1 @errstart(i32 noundef 15, ptr noundef null)
  br i1 %83, label %84, label %88

84:                                               ; preds = %82, %80
  %85 = call i32 @errcode_for_file_access()
  %86 = load ptr, ptr %4, align 8
  %87 = call i32 (ptr, ...) @errmsg(ptr noundef @.str.23, ptr noundef %86)
  call void @errfinish(ptr noundef @.str.1, i32 noundef 1967, ptr noundef @__func__.PathNameDeleteTemporaryFile)
  br label %88

88:                                               ; preds = %84, %82, %80
  br label %89

89:                                               ; preds = %88
  br label %90

90:                                               ; preds = %89
  br label %91

91:                                               ; preds = %90, %72
  store i1 true, ptr %3, align 1
  store i32 1, ptr %8, align 4
  br label %92

92:                                               ; preds = %91, %68, %20
  call void @llvm.lifetime.end.p0(i64 4, ptr %7) #14
  call void @llvm.lifetime.end.p0(i64 144, ptr %6) #14
  %93 = load i1, ptr %3, align 1
  ret i1 %93
}