; Function Attrs: nounwind uwtable
define dso_local noundef zeroext i1 @PathNameDeleteTemporaryFile(ptr noundef %0, i1 noundef zeroext %1) local_unnamed_addr #0 {
  %3 = alloca %struct.stat, align 8
  call void @llvm.lifetime.start.p0(i64 144, ptr nonnull %3) #25
  %4 = call i32 @stat(ptr noundef %0, ptr noundef nonnull %3) #25
  %.not = icmp eq i32 %4, 0
  br i1 %.not, label %.thread20, label %5

5:                                                ; preds = %2
  %6 = tail call ptr @__errno_location() #26
  %7 = load i32, ptr %6, align 4
  %8 = icmp eq i32 %7, 2
  br i1 %8, label %ReportTemporaryFileUsage.exit, label %9

9:                                                ; preds = %5
  %10 = tail call i32 @unlink(ptr noundef %0) #25
  %11 = icmp slt i32 %10, 0
  br i1 %11, label %14, label %22

.thread20:                                        ; preds = %2
  %12 = tail call i32 @unlink(ptr noundef %0) #25
  %13 = icmp slt i32 %12, 0
  br i1 %13, label %.thread20._crit_edge, label %.thread23

.thread20._crit_edge:                             ; preds = %.thread20
  %.pre = tail call ptr @__errno_location() #26
  br label %14

14:                                               ; preds = %.thread20._crit_edge, %9
  %.pre-phi = phi ptr [ %.pre, %.thread20._crit_edge ], [ %6, %9 ]
  %15 = load i32, ptr %.pre-phi, align 4
  %.not15 = icmp eq i32 %15, 2
  br i1 %.not15, label %ReportTemporaryFileUsage.exit, label %16

16:                                               ; preds = %14
  %17 = select i1 %1, i32 21, i32 15
  %18 = tail call zeroext i1 @errstart(i32 noundef %17, ptr noundef null) #25
  br i1 %18, label %19, label %ReportTemporaryFileUsage.exit

19:                                               ; preds = %16
  %20 = tail call i32 @errcode_for_file_access() #25
  %21 = tail call i32 (ptr, ...) @errmsg(ptr noundef nonnull @.str.22, ptr noundef %0) #25
  tail call void @errfinish(ptr noundef nonnull @.str.1, i32 noundef 1956, ptr noundef nonnull @__func__.PathNameDeleteTemporaryFile) #25
  br label %ReportTemporaryFileUsage.exit

22:                                               ; preds = %9
  %23 = icmp eq i32 %7, 0
  br i1 %23, label %.thread23, label %34

.thread23:                                        ; preds = %.thread20, %22
  %24 = getelementptr inbounds nuw i8, ptr %3, i64 48
  %25 = load i64, ptr %24, align 8
  tail call void @pgstat_report_tempfile(i64 noundef %25) #25
  %26 = load i32, ptr @log_temp_files, align 4
  %27 = icmp slt i32 %26, 0
  %28 = sdiv i64 %25, 1024
  %29 = zext nneg i32 %26 to i64
  %.not.i = icmp slt i64 %28, %29
  %or.cond.i = select i1 %27, i1 true, i1 %.not.i
  br i1 %or.cond.i, label %ReportTemporaryFileUsage.exit, label %30

30:                                               ; preds = %.thread23
  %31 = tail call zeroext i1 @errstart(i32 noundef 15, ptr noundef null) #25
  br i1 %31, label %32, label %ReportTemporaryFileUsage.exit

32:                                               ; preds = %30
  %33 = tail call i32 (ptr, ...) @errmsg(ptr noundef nonnull @.str.55, ptr noundef %0, i64 noundef %25) #25
  tail call void @errfinish(ptr noundef nonnull @.str.1, i32 noundef 1536, ptr noundef nonnull @__func__.ReportTemporaryFileUsage) #25
  br label %ReportTemporaryFileUsage.exit

34:                                               ; preds = %22
  store i32 %7, ptr %6, align 4
  %35 = tail call zeroext i1 @errstart(i32 noundef 15, ptr noundef null) #25
  br i1 %35, label %36, label %ReportTemporaryFileUsage.exit

36:                                               ; preds = %34
  %37 = tail call i32 @errcode_for_file_access() #25
  %38 = tail call i32 (ptr, ...) @errmsg(ptr noundef nonnull @.str.23, ptr noundef %0) #25
  tail call void @errfinish(ptr noundef nonnull @.str.1, i32 noundef 1967, ptr noundef nonnull @__func__.PathNameDeleteTemporaryFile) #25
  br label %ReportTemporaryFileUsage.exit

ReportTemporaryFileUsage.exit:                    ; preds = %16, %19, %32, %30, %.thread23, %36, %34, %14, %5
  %.014 = phi i1 [ false, %5 ], [ false, %14 ], [ true, %34 ], [ true, %36 ], [ true, %.thread23 ], [ true, %30 ], [ true, %32 ], [ false, %19 ], [ false, %16 ]
  call void @llvm.lifetime.end.p0(i64 144, ptr nonnull %3) #25
  ret i1 %.014
}